; Function Attrs: mustprogress uwtable
define void @_ZNK6icu_758numparse4impl19AffixPatternMatcher10getPatternEv(ptr noalias nonnull sret(%"class.icu_75::UnicodeString") align 8 %agg.result, ptr nocapture noundef nonnull readonly align 8 dereferenceable(80) %this) local_unnamed_addr #1 align 2 personality ptr @__gxx_personality_v0 {
entry:
  %agg.tmp.i = alloca %"class.icu_75::ConstChar16Ptr", align 8
  %fPattern = getelementptr inbounds i8, ptr %this, i64 56
  call void @llvm.lifetime.start.p0(i64 8, ptr nonnull %agg.tmp.i)
  %0 = load ptr, ptr %fPattern, align 8, !noalias !9
  store ptr %0, ptr %agg.tmp.i, align 8, !noalias !9
  invoke void @_ZN6icu_7513UnicodeStringC1EaNS_14ConstChar16PtrEi(ptr noundef nonnull align 8 dereferenceable(64) %agg.result, i8 noundef signext 1, ptr noundef nonnull %agg.tmp.i, i32 noundef -1)
          to label %_ZNK6icu_758numparse4impl20CompactUnicodeStringILi4EE22toAliasedUnicodeStringEv.exit unwind label %lpad.i

lpad.i:                                           ; preds = %entry
  %1 = landingpad { ptr, i32 }
          cleanup
  %2 = load ptr, ptr %agg.tmp.i, align 8, !noalias !9
  call void asm sideeffect "", "rm,~{memory},~{dirflag},~{fpsr},~{flags}"(ptr %2) #16, !srcloc !12
  resume { ptr, i32 } %1

_ZNK6icu_758numparse4impl20CompactUnicodeStringILi4EE22toAliasedUnicodeStringEv.exit: ; preds = %entry
  %3 = load ptr, ptr %agg.tmp.i, align 8, !noalias !9
  call void asm sideeffect "", "rm,~{memory},~{dirflag},~{fpsr},~{flags}"(ptr %3) #16, !srcloc !12
  call void @llvm.lifetime.end.p0(i64 8, ptr nonnull %agg.tmp.i)
  ret void
}